target datalayout = "e-m:e-p270:32:32-p271:32:32-p272:64:64-i64:64-i128:128-f80:128-n8:16:32:64-S128"
target triple = "x86_64-pc-linux-gnu"

@.str = private unnamed_addr constant [28 x i8] c"-----BEGIN PUBLIC KEY-----\0A\00", align 1
@.str.1 = private unnamed_addr constant [26 x i8] c"-----END PUBLIC KEY-----\0A\00", align 1

; Function Attrs: nounwind uwtable
define hidden i32 @mbedtls_pk_write_pubkey_pem(ptr noundef %0, ptr noundef %1, i64 noundef %2) #0 {
  %4 = alloca i32, align 4
  %5 = alloca ptr, align 8
  %6 = alloca ptr, align 8
  %7 = alloca i64, align 8
  %8 = alloca i32, align 4
  %9 = alloca ptr, align 8
  %10 = alloca i32, align 4
  %11 = alloca i64, align 8
  store ptr %0, ptr %5, align 8, !tbaa !11
  store ptr %1, ptr %6, align 8, !tbaa !9
  store i64 %2, ptr %7, align 8, !tbaa !15
  call void @llvm.lifetime.start.p0(i64 4, ptr %8) #7
  store i32 -110, ptr %8, align 4, !tbaa !13
  call void @llvm.lifetime.start.p0(i64 8, ptr %9) #7
  store ptr null, ptr %9, align 8, !tbaa !9
  %12 = call noalias ptr @calloc(i64 noundef 1, i64 noundef 2086) #8
  store ptr %12, ptr %9, align 8, !tbaa !9
  %13 = load ptr, ptr %9, align 8, !tbaa !9
  %14 = icmp eq ptr %13, null
  br i1 %14, label %15, label %16

15:                                               ; preds = %3
  store i32 -16256, ptr %4, align 4
  store i32 1, ptr %10, align 4
  br label %40

16:                                               ; preds = %3
  call void @llvm.lifetime.start.p0(i64 8, ptr %11) #7
  store i64 0, ptr %11, align 8, !tbaa !15
  %17 = load ptr, ptr %5, align 8, !tbaa !11
  %18 = load ptr, ptr %9, align 8, !tbaa !9
  %19 = call i32 @mbedtls_pk_write_pubkey_der(ptr noundef %17, ptr noundef %18, i64 noundef 2086)
  store i32 %19, ptr %8, align 4, !tbaa !13
  %20 = icmp slt i32 %19, 0
  br i1 %20, label %21, label %22

21:                                               ; preds = %16
  br label %37

22:                                               ; preds = %16
  %23 = load ptr, ptr %9, align 8, !tbaa !9
  %24 = getelementptr inbounds i8, ptr %23, i64 2086
  %25 = load i32, ptr %8, align 4, !tbaa !13
  %26 = sext i32 %25 to i64
  %27 = sub i64 0, %26
  %28 = getelementptr inbounds i8, ptr %24, i64 %27
  %29 = load i32, ptr %8, align 4, !tbaa !13
  %30 = sext i32 %29 to i64
  %31 = load ptr, ptr %6, align 8, !tbaa !9
  %32 = load i64, ptr %7, align 8, !tbaa !15
  %33 = call i32 @mbedtls_pem_write_buffer(ptr noundef @.str, ptr noundef @.str.1, ptr noundef %28, i64 noundef %30, ptr noundef %31, i64 noundef %32, ptr noundef %11)
  store i32 %33, ptr %8, align 4, !tbaa !13
  %34 = icmp ne i32 %33, 0
  br i1 %34, label %35, label %36

35:                                               ; preds = %22
  br label %37

36:                                               ; preds = %22
  store i32 0, ptr %8, align 4, !tbaa !13
  br label %37

37:                                               ; preds = %36, %35, %21
  %38 = load ptr, ptr %9, align 8, !tbaa !9
  call void @free(ptr noundef %38) #7
  %39 = load i32, ptr %8, align 4, !tbaa !13
  store i32 %39, ptr %4, align 4
  store i32 1, ptr %10, align 4
  call void @llvm.lifetime.end.p0(i64 8, ptr %11) #7
  br label %40

40:                                               ; preds = %37, %15
  call void @llvm.lifetime.end.p0(i64 8, ptr %9) #7
  call void @llvm.lifetime.end.p0(i64 4, ptr %8) #7
  %41 = load i32, ptr %4, align 4
  ret i32 %41
}