; Function Attrs: nounwind uwtable
define hidden i32 @mbedtls_pk_write_pubkey_pem(ptr noundef %0, ptr noundef %1, i64 noundef %2) local_unnamed_addr #0 {
  %4 = alloca i64, align 8
  %5 = tail call noalias dereferenceable_or_null(2086) ptr @calloc(i64 noundef 1, i64 noundef 2086) #7
  %6 = icmp eq ptr %5, null
  br i1 %6, label %17, label %7

7:                                                ; preds = %3
  call void @llvm.lifetime.start.p0(i64 8, ptr nonnull %4) #6
  store i64 0, ptr %4, align 8, !tbaa !3
  %8 = tail call i32 @mbedtls_pk_write_pubkey_der(ptr noundef %0, ptr noundef nonnull %5, i64 noundef 2086)
  %9 = icmp slt i32 %8, 0
  br i1 %9, label %16, label %10

10:                                               ; preds = %7
  %11 = getelementptr inbounds nuw i8, ptr %5, i64 2086
  %12 = zext nneg i32 %8 to i64
  %13 = sub nsw i64 0, %12
  %14 = getelementptr inbounds i8, ptr %11, i64 %13
  %15 = call i32 @mbedtls_pem_write_buffer(ptr noundef nonnull @.str, ptr noundef nonnull @.str.1, ptr noundef nonnull %14, i64 noundef %12, ptr noundef %1, i64 noundef %2, ptr noundef nonnull %4) #6
  br label %16

16:                                               ; preds = %10, %7
  %.0 = phi i32 [ %8, %7 ], [ %15, %10 ]
  call void @free(ptr noundef nonnull %5) #6
  call void @llvm.lifetime.end.p0(i64 8, ptr nonnull %4) #6
  br label %17

17:                                               ; preds = %3, %16
  %.010 = phi i32 [ %.0, %16 ], [ -16256, %3 ]
  ret i32 %.010
}